target datalayout = "e-m:e-p270:32:32-p271:32:32-p272:64:64-i64:64-i128:128-f80:128-n8:16:32:64-S128"
target triple = "x86_64-unknown-linux-gnu"

%"class.icu_75::UnicodeString" = type { %"class.icu_75::Replaceable", %"union.icu_75::UnicodeString::StackBufferOrFields" }
%"class.icu_75::Replaceable" = type { %"class.icu_75::UObject" }
%"class.icu_75::UObject" = type { ptr }
%"union.icu_75::UnicodeString::StackBufferOrFields" = type { %struct.anon.0, [32 x i8] }
%struct.anon.0 = type { i16, i32, i32, ptr }
%"struct.icu_75::CollationData" = type <{ ptr, ptr, ptr, ptr, ptr, ptr, ptr, i32, i32, i32, i32, ptr, ptr, ptr, i32, i32, ptr, ptr, i32, [4 x i8], ptr, i32, [4 x i8] }>
%struct.UTrie2 = type { ptr, ptr, ptr, i32, i32, i16, i16, i32, i32, i32, i32, ptr, i32, i8, i8, i16, ptr }
%"class.icu_75::ContractionsAndExpansions" = type <{ ptr, ptr, ptr, ptr, i8, i8, [6 x i8], %"class.icu_75::UnicodeSet", %"class.icu_75::UnicodeSet", %"class.icu_75::UnicodeString", ptr, [31 x i64], i32, [4 x i8] }>
%"class.icu_75::UnicodeSet" = type <{ %"class.icu_75::UnicodeFilter", ptr, i32, i32, i8, [7 x i8], ptr, ptr, i32, [4 x i8], ptr, i32, [4 x i8], ptr, ptr, [25 x i32], [4 x i8] }>
%"class.icu_75::UnicodeFilter" = type { %"class.icu_75::UnicodeFunctor", %"class.icu_75::UnicodeMatcher" }
%"class.icu_75::UnicodeFunctor" = type { %"class.icu_75::UObject" }
%"class.icu_75::UnicodeMatcher" = type { ptr }

; Function Attrs: mustprogress nounwind uwtable
define linkonce_odr noundef i32 @_ZNK6icu_7513CollationData7getCE32Ei(ptr noundef nonnull align 8 dereferenceable(140) %this, i32 noundef %c) #1 comdat align 2 {
entry:
  %this.addr = alloca ptr, align 8
  %c.addr = alloca i32, align 4
  store ptr %this, ptr %this.addr, align 8
  store i32 %c, ptr %c.addr, align 4
  %this1 = load ptr, ptr %this.addr, align 8
  %trie = getelementptr inbounds %"struct.icu_75::CollationData", ptr %this1, i32 0, i32 0
  %0 = load ptr, ptr %trie, align 8
  %data32 = getelementptr inbounds %struct.UTrie2, ptr %0, i32 0, i32 2
  %1 = load ptr, ptr %data32, align 8
  %2 = load i32, ptr %c.addr, align 4
  %cmp = icmp ult i32 %2, 55296
  br i1 %cmp, label %cond.true, label %cond.false

cond.true:                                        ; preds = %entry
  %trie2 = getelementptr inbounds %"struct.icu_75::CollationData", ptr %this1, i32 0, i32 0
  %3 = load ptr, ptr %trie2, align 8
  %index = getelementptr inbounds %struct.UTrie2, ptr %3, i32 0, i32 0
  %4 = load ptr, ptr %index, align 8
  %5 = load i32, ptr %c.addr, align 4
  %shr = ashr i32 %5, 5
  %add = add nsw i32 0, %shr
  %idxprom = sext i32 %add to i64
  %arrayidx = getelementptr inbounds i16, ptr %4, i64 %idxprom
  %6 = load i16, ptr %arrayidx, align 2
  %conv = zext i16 %6 to i32
  %shl = shl i32 %conv, 2
  %7 = load i32, ptr %c.addr, align 4
  %and = and i32 %7, 31
  %add3 = add nsw i32 %shl, %and
  br label %cond.end49

cond.false:                                       ; preds = %entry
  %8 = load i32, ptr %c.addr, align 4
  %cmp4 = icmp ule i32 %8, 65535
  br i1 %cmp4, label %cond.true5, label %cond.false17

cond.true5:                                       ; preds = %cond.false
  %trie6 = getelementptr inbounds %"struct.icu_75::CollationData", ptr %this1, i32 0, i32 0
  %9 = load ptr, ptr %trie6, align 8
  %index7 = getelementptr inbounds %struct.UTrie2, ptr %9, i32 0, i32 0
  %10 = load ptr, ptr %index7, align 8
  %11 = load i32, ptr %c.addr, align 4
  %cmp8 = icmp sle i32 %11, 56319
  %cond = select i1 %cmp8, i32 320, i32 0
  %12 = load i32, ptr %c.addr, align 4
  %shr9 = ashr i32 %12, 5
  %add10 = add nsw i32 %cond, %shr9
  %idxprom11 = sext i32 %add10 to i64
  %arrayidx12 = getelementptr inbounds i16, ptr %10, i64 %idxprom11
  %13 = load i16, ptr %arrayidx12, align 2
  %conv13 = zext i16 %13 to i32
  %shl14 = shl i32 %conv13, 2
  %14 = load i32, ptr %c.addr, align 4
  %and15 = and i32 %14, 31
  %add16 = add nsw i32 %shl14, %and15
  br label %cond.end47

cond.false17:                                     ; preds = %cond.false
  %15 = load i32, ptr %c.addr, align 4
  %cmp18 = icmp ugt i32 %15, 1114111
  br i1 %cmp18, label %cond.true19, label %cond.false20

cond.true19:                                      ; preds = %cond.false17
  br label %cond.end45

cond.false20:                                     ; preds = %cond.false17
  %16 = load i32, ptr %c.addr, align 4
  %trie21 = getelementptr inbounds %"struct.icu_75::CollationData", ptr %this1, i32 0, i32 0
  %17 = load ptr, ptr %trie21, align 8
  %highStart = getelementptr inbounds %struct.UTrie2, ptr %17, i32 0, i32 9
  %18 = load i32, ptr %highStart, align 4
  %cmp22 = icmp sge i32 %16, %18
  br i1 %cmp22, label %cond.true23, label %cond.false25

cond.true23:                                      ; preds = %cond.false20
  %trie24 = getelementptr inbounds %"struct.icu_75::CollationData", ptr %this1, i32 0, i32 0
  %19 = load ptr, ptr %trie24, align 8
  %highValueIndex = getelementptr inbounds %struct.UTrie2, ptr %19, i32 0, i32 10
  %20 = load i32, ptr %highValueIndex, align 8
  br label %cond.end

cond.false25:                                     ; preds = %cond.false20
  %trie26 = getelementptr inbounds %"struct.icu_75::CollationData", ptr %this1, i32 0, i32 0
  %21 = load ptr, ptr %trie26, align 8
  %index27 = getelementptr inbounds %struct.UTrie2, ptr %21, i32 0, i32 0
  %22 = load ptr, ptr %index27, align 8
  %trie28 = getelementptr inbounds %"struct.icu_75::CollationData", ptr %this1, i32 0, i32 0
  %23 = load ptr, ptr %trie28, align 8
  %index29 = getelementptr inbounds %struct.UTrie2, ptr %23, i32 0, i32 0
  %24 = load ptr, ptr %index29, align 8
  %25 = load i32, ptr %c.addr, align 4
  %shr30 = ashr i32 %25, 11
  %add31 = add nsw i32 2080, %shr30
  %idxprom32 = sext i32 %add31 to i64
  %arrayidx33 = getelementptr inbounds i16, ptr %24, i64 %idxprom32
  %26 = load i16, ptr %arrayidx33, align 2
  %conv34 = zext i16 %26 to i32
  %27 = load i32, ptr %c.addr, align 4
  %shr35 = ashr i32 %27, 5
  %and36 = and i32 %shr35, 63
  %add37 = add nsw i32 %conv34, %and36
  %idxprom38 = sext i32 %add37 to i64
  %arrayidx39 = getelementptr inbounds i16, ptr %22, i64 %idxprom38
  %28 = load i16, ptr %arrayidx39, align 2
  %conv40 = zext i16 %28 to i32
  %shl41 = shl i32 %conv40, 2
  %29 = load i32, ptr %c.addr, align 4
  %and42 = and i32 %29, 31
  %add43 = add nsw i32 %shl41, %and42
  br label %cond.end

cond.end:                                         ; preds = %cond.false25, %cond.true23
  %cond44 = phi i32 [ %20, %cond.true23 ], [ %add43, %cond.false25 ]
  br label %cond.end45

cond.end45:                                       ; preds = %cond.end, %cond.true19
  %cond46 = phi i32 [ 128, %cond.true19 ], [ %cond44, %cond.end ]
  br label %cond.end47

cond.end47:                                       ; preds = %cond.end45, %cond.true5
  %cond48 = phi i32 [ %add16, %cond.true5 ], [ %cond46, %cond.end45 ]
  br label %cond.end49

cond.end49:                                       ; preds = %cond.end47, %cond.true
  %cond50 = phi i32 [ %add3, %cond.true ], [ %cond48, %cond.end47 ]
  %idxprom51 = sext i32 %cond50 to i64
  %arrayidx52 = getelementptr inbounds i32, ptr %1, i64 %idxprom51
  %30 = load i32, ptr %arrayidx52, align 4
  ret i32 %30
}

; Function Attrs: mustprogress nounwind uwtable
define internal noundef signext i8 @_ZL9U_FAILURE10UErrorCode(i32 noundef %code) #1 {
entry:
  %code.addr = alloca i32, align 4
  store i32 %code, ptr %code.addr, align 4
  %0 = load i32, ptr %code.addr, align 4
  %cmp = icmp sgt i32 %0, 0
  %conv = zext i1 %cmp to i8
  ret i8 %conv
}

; Function Attrs: mustprogress uwtable
define void @_ZN6icu_7525ContractionsAndExpansions12forCodePointEPKNS_13CollationDataEiR10UErrorCode(ptr noundef nonnull align 8 dereferenceable(764) %this, ptr noundef %d, i32 noundef %c, ptr noundef nonnull align 4 dereferenceable(4) %ec) #0 align 2 {
entry:
  %this.addr = alloca ptr, align 8
  %d.addr = alloca ptr, align 8
  %c.addr = alloca i32, align 4
  %ec.addr = alloca ptr, align 8
  %ce32 = alloca i32, align 4
  store ptr %this, ptr %this.addr, align 8
  store ptr %d, ptr %d.addr, align 8
  store i32 %c, ptr %c.addr, align 4
  store ptr %ec, ptr %ec.addr, align 8
  %this1 = load ptr, ptr %this.addr, align 8
  %0 = load ptr, ptr %ec.addr, align 8
  %1 = load i32, ptr %0, align 4
  %call = call noundef signext i8 @_ZL9U_FAILURE10UErrorCode(i32 noundef %1)
  %tobool = icmp ne i8 %call, 0
  br i1 %tobool, label %if.then, label %if.end

if.then:                                          ; preds = %entry
  br label %return

if.end:                                           ; preds = %entry
  %2 = load ptr, ptr %ec.addr, align 8
  %3 = load i32, ptr %2, align 4
  %errorCode = getelementptr inbounds %"class.icu_75::ContractionsAndExpansions", ptr %this1, i32 0, i32 12
  store i32 %3, ptr %errorCode, align 8
  %4 = load ptr, ptr %d.addr, align 8
  %5 = load i32, ptr %c.addr, align 4
  %call2 = call noundef i32 @_ZNK6icu_7513CollationData7getCE32Ei(ptr noundef nonnull align 8 dereferenceable(140) %4, i32 noundef %5)
  store i32 %call2, ptr %ce32, align 4
  %6 = load i32, ptr %ce32, align 4
  %cmp = icmp eq i32 %6, 192
  br i1 %cmp, label %if.then3, label %if.end5

if.then3:                                         ; preds = %if.end
  %7 = load ptr, ptr %d.addr, align 8
  %base = getelementptr inbounds %"struct.icu_75::CollationData", ptr %7, i32 0, i32 4
  %8 = load ptr, ptr %base, align 8
  store ptr %8, ptr %d.addr, align 8
  %9 = load ptr, ptr %d.addr, align 8
  %10 = load i32, ptr %c.addr, align 4
  %call4 = call noundef i32 @_ZNK6icu_7513CollationData7getCE32Ei(ptr noundef nonnull align 8 dereferenceable(140) %9, i32 noundef %10)
  store i32 %call4, ptr %ce32, align 4
  br label %if.end5

if.end5:                                          ; preds = %if.then3, %if.end
  %11 = load ptr, ptr %d.addr, align 8
  %data = getelementptr inbounds %"class.icu_75::ContractionsAndExpansions", ptr %this1, i32 0, i32 0
  store ptr %11, ptr %data, align 8
  %12 = load i32, ptr %c.addr, align 4
  %13 = load i32, ptr %c.addr, align 4
  %14 = load i32, ptr %ce32, align 4
  call void @_ZN6icu_7525ContractionsAndExpansions10handleCE32Eiij(ptr noundef nonnull align 8 dereferenceable(764) %this1, i32 noundef %12, i32 noundef %13, i32 noundef %14)
  %errorCode6 = getelementptr inbounds %"class.icu_75::ContractionsAndExpansions", ptr %this1, i32 0, i32 12
  %15 = load i32, ptr %errorCode6, align 8
  %16 = load ptr, ptr %ec.addr, align 8
  store i32 %15, ptr %16, align 4
  br label %return

return:                                           ; preds = %if.end5, %if.then
  ret void
}