; Function Attrs: mustprogress uwtable
define void @_ZN6icu_7525ContractionsAndExpansions12forCodePointEPKNS_13CollationDataEiR10UErrorCode(ptr noundef nonnull align 8 dereferenceable(764) %this, ptr noundef %d, i32 noundef %c, ptr nocapture noundef nonnull align 4 dereferenceable(4) %ec) local_unnamed_addr #0 align 2 {
entry:
  %0 = load i32, ptr %ec, align 4
  %cmp.i = icmp slt i32 %0, 1
  br i1 %cmp.i, label %if.end, label %return

if.end:                                           ; preds = %entry
  %errorCode = getelementptr inbounds i8, ptr %this, i64 760
  store i32 %0, ptr %errorCode, align 8
  %1 = load ptr, ptr %d, align 8
  %data32.i = getelementptr inbounds i8, ptr %1, i64 16
  %2 = load ptr, ptr %data32.i, align 8
  %cmp.i10 = icmp ult i32 %c, 55296
  br i1 %cmp.i10, label %_ZNK6icu_7513CollationData7getCE32Ei.exit.thread, label %cond.false.i

cond.false.i:                                     ; preds = %if.end
  %cmp4.i = icmp ult i32 %c, 65536
  br i1 %cmp4.i, label %_ZNK6icu_7513CollationData7getCE32Ei.exit.thread65, label %cond.false17.i

cond.false17.i:                                   ; preds = %cond.false.i
  %cmp18.i = icmp ugt i32 %c, 1114111
  br i1 %cmp18.i, label %_ZNK6icu_7513CollationData7getCE32Ei.exit, label %cond.false20.i

cond.false20.i:                                   ; preds = %cond.false17.i
  %highStart.i = getelementptr inbounds i8, ptr %1, i64 44
  %3 = load i32, ptr %highStart.i, align 4
  %cmp22.not.i = icmp sgt i32 %3, %c
  br i1 %cmp22.not.i, label %cond.false25.i, label %cond.true23.i

cond.true23.i:                                    ; preds = %cond.false20.i
  %highValueIndex.i = getelementptr inbounds i8, ptr %1, i64 48
  %4 = load i32, ptr %highValueIndex.i, align 8
  br label %_ZNK6icu_7513CollationData7getCE32Ei.exit

cond.false25.i:                                   ; preds = %cond.false20.i
  %5 = load ptr, ptr %1, align 8
  %shr30.i = lshr i32 %c, 11
  %6 = zext nneg i32 %shr30.i to i64
  %7 = getelementptr i16, ptr %5, i64 %6
  %arrayidx33.i = getelementptr i8, ptr %7, i64 4160
  %8 = load i16, ptr %arrayidx33.i, align 2
  %conv34.i = zext i16 %8 to i32
  %shr35.i = lshr i32 %c, 5
  %and36.i = and i32 %shr35.i, 63
  %add37.i = add nuw nsw i32 %and36.i, %conv34.i
  %idxprom38.i = zext nneg i32 %add37.i to i64
  %arrayidx39.i = getelementptr inbounds i16, ptr %5, i64 %idxprom38.i
  %9 = load i16, ptr %arrayidx39.i, align 2
  %conv40.i = zext i16 %9 to i32
  %shl41.i = shl nuw nsw i32 %conv40.i, 2
  %and42.i = and i32 %c, 31
  %add43.i = add nuw nsw i32 %shl41.i, %and42.i
  br label %_ZNK6icu_7513CollationData7getCE32Ei.exit

_ZNK6icu_7513CollationData7getCE32Ei.exit:        ; preds = %cond.false17.i, %cond.true23.i, %cond.false25.i
  %cond50.i = phi i32 [ 128, %cond.false17.i ], [ %4, %cond.true23.i ], [ %add43.i, %cond.false25.i ]
  %idxprom51.i = sext i32 %cond50.i to i64
  %arrayidx52.i = getelementptr inbounds i32, ptr %2, i64 %idxprom51.i
  %10 = load i32, ptr %arrayidx52.i, align 4
  %cmp = icmp eq i32 %10, 192
  br i1 %cmp, label %if.then3, label %if.end5

_ZNK6icu_7513CollationData7getCE32Ei.exit.thread65: ; preds = %cond.false.i
  %11 = load ptr, ptr %1, align 8
  %cmp8.i = icmp ult i32 %c, 56320
  %cond.i = select i1 %cmp8.i, i32 320, i32 0
  %shr9.i = lshr i32 %c, 5
  %add10.i = add nuw nsw i32 %cond.i, %shr9.i
  %idxprom11.i = zext nneg i32 %add10.i to i64
  %arrayidx12.i = getelementptr inbounds i16, ptr %11, i64 %idxprom11.i
  %12 = load i16, ptr %arrayidx12.i, align 2
  %conv13.i = zext i16 %12 to i32
  %shl14.i = shl nuw nsw i32 %conv13.i, 2
  %and15.i = and i32 %c, 31
  %add16.i = add nuw nsw i32 %shl14.i, %and15.i
  %idxprom51.i67 = zext nneg i32 %add16.i to i64
  %arrayidx52.i68 = getelementptr inbounds i32, ptr %2, i64 %idxprom51.i67
  %13 = load i32, ptr %arrayidx52.i68, align 4
  %cmp69 = icmp eq i32 %13, 192
  br i1 %cmp69, label %if.then3.thread70, label %if.end5

if.then3.thread70:                                ; preds = %_ZNK6icu_7513CollationData7getCE32Ei.exit.thread65
  %base71 = getelementptr inbounds i8, ptr %d, i64 32
  %14 = load ptr, ptr %base71, align 8
  %15 = load ptr, ptr %14, align 8
  %data32.i1272 = getelementptr inbounds i8, ptr %15, i64 16
  %16 = load ptr, ptr %data32.i1272, align 8
  br label %cond.true5.i39

_ZNK6icu_7513CollationData7getCE32Ei.exit.thread: ; preds = %if.end
  %17 = load ptr, ptr %1, align 8
  %shr.i = lshr i32 %c, 5
  %idxprom.i = zext nneg i32 %shr.i to i64
  %arrayidx.i = getelementptr inbounds i16, ptr %17, i64 %idxprom.i
  %18 = load i16, ptr %arrayidx.i, align 2
  %conv.i11 = zext i16 %18 to i32
  %shl.i = shl nuw nsw i32 %conv.i11, 2
  %and.i = and i32 %c, 31
  %add3.i = add nuw nsw i32 %shl.i, %and.i
  %idxprom51.i60 = zext nneg i32 %add3.i to i64
  %arrayidx52.i61 = getelementptr inbounds i32, ptr %2, i64 %idxprom51.i60
  %19 = load i32, ptr %arrayidx52.i61, align 4
  %cmp62 = icmp eq i32 %19, 192
  br i1 %cmp62, label %if.then3.thread, label %if.end5

if.then3.thread:                                  ; preds = %_ZNK6icu_7513CollationData7getCE32Ei.exit.thread
  %base63 = getelementptr inbounds i8, ptr %d, i64 32
  %20 = load ptr, ptr %base63, align 8
  %21 = load ptr, ptr %20, align 8
  %data32.i1264 = getelementptr inbounds i8, ptr %21, i64 16
  %22 = load ptr, ptr %data32.i1264, align 8
  %23 = load ptr, ptr %21, align 8
  %arrayidx.i53 = getelementptr inbounds i16, ptr %23, i64 %idxprom.i
  %24 = load i16, ptr %arrayidx.i53, align 2
  %conv.i54 = zext i16 %24 to i32
  %shl.i55 = shl nuw nsw i32 %conv.i54, 2
  %add3.i57 = add nuw nsw i32 %shl.i55, %and.i
  br label %_ZNK6icu_7513CollationData7getCE32Ei.exit58

if.then3:                                         ; preds = %_ZNK6icu_7513CollationData7getCE32Ei.exit
  %base = getelementptr inbounds i8, ptr %d, i64 32
  %25 = load ptr, ptr %base, align 8
  %26 = load ptr, ptr %25, align 8
  %data32.i12 = getelementptr inbounds i8, ptr %26, i64 16
  %27 = load ptr, ptr %data32.i12, align 8
  br i1 %cmp4.i, label %cond.true5.i39, label %cond.false17.i16

cond.true5.i39:                                   ; preds = %if.then3.thread70, %if.then3
  %28 = phi ptr [ %16, %if.then3.thread70 ], [ %27, %if.then3 ]
  %29 = phi ptr [ %15, %if.then3.thread70 ], [ %26, %if.then3 ]
  %30 = phi ptr [ %14, %if.then3.thread70 ], [ %25, %if.then3 ]
  %31 = load ptr, ptr %29, align 8
  %cmp8.i40 = icmp ult i32 %c, 56320
  %cond.i41 = select i1 %cmp8.i40, i32 320, i32 0
  %shr9.i42 = lshr i32 %c, 5
  %add10.i43 = add nuw nsw i32 %cond.i41, %shr9.i42
  %idxprom11.i44 = zext nneg i32 %add10.i43 to i64
  %arrayidx12.i45 = getelementptr inbounds i16, ptr %31, i64 %idxprom11.i44
  %32 = load i16, ptr %arrayidx12.i45, align 2
  %conv13.i46 = zext i16 %32 to i32
  %shl14.i47 = shl nuw nsw i32 %conv13.i46, 2
  %and15.i48 = and i32 %c, 31
  %add16.i49 = add nuw nsw i32 %shl14.i47, %and15.i48
  br label %_ZNK6icu_7513CollationData7getCE32Ei.exit58

cond.false17.i16:                                 ; preds = %if.then3
  %cmp18.i17 = icmp ugt i32 %c, 1114111
  br i1 %cmp18.i17, label %_ZNK6icu_7513CollationData7getCE32Ei.exit58, label %cond.false20.i18

cond.false20.i18:                                 ; preds = %cond.false17.i16
  %highStart.i19 = getelementptr inbounds i8, ptr %26, i64 44
  %33 = load i32, ptr %highStart.i19, align 4
  %cmp22.not.i20 = icmp sgt i32 %33, %c
  br i1 %cmp22.not.i20, label %cond.false25.i26, label %cond.true23.i21

cond.true23.i21:                                  ; preds = %cond.false20.i18
  %highValueIndex.i22 = getelementptr inbounds i8, ptr %26, i64 48
  %34 = load i32, ptr %highValueIndex.i22, align 8
  br label %_ZNK6icu_7513CollationData7getCE32Ei.exit58

cond.false25.i26:                                 ; preds = %cond.false20.i18
  %35 = load ptr, ptr %26, align 8
  %shr30.i27 = lshr i32 %c, 11
  %36 = zext nneg i32 %shr30.i27 to i64
  %37 = getelementptr i16, ptr %35, i64 %36
  %arrayidx33.i28 = getelementptr i8, ptr %37, i64 4160
  %38 = load i16, ptr %arrayidx33.i28, align 2
  %conv34.i29 = zext i16 %38 to i32
  %shr35.i30 = lshr i32 %c, 5
  %and36.i31 = and i32 %shr35.i30, 63
  %add37.i32 = add nuw nsw i32 %and36.i31, %conv34.i29
  %idxprom38.i33 = zext nneg i32 %add37.i32 to i64
  %arrayidx39.i34 = getelementptr inbounds i16, ptr %35, i64 %idxprom38.i33
  %39 = load i16, ptr %arrayidx39.i34, align 2
  %conv40.i35 = zext i16 %39 to i32
  %shl41.i36 = shl nuw nsw i32 %conv40.i35, 2
  %and42.i37 = and i32 %c, 31
  %add43.i38 = add nuw nsw i32 %shl41.i36, %and42.i37
  br label %_ZNK6icu_7513CollationData7getCE32Ei.exit58

_ZNK6icu_7513CollationData7getCE32Ei.exit58:      ; preds = %if.then3.thread, %cond.true5.i39, %cond.false17.i16, %cond.true23.i21, %cond.false25.i26
  %40 = phi ptr [ %22, %if.then3.thread ], [ %28, %cond.true5.i39 ], [ %27, %cond.false17.i16 ], [ %27, %cond.true23.i21 ], [ %27, %cond.false25.i26 ]
  %41 = phi ptr [ %20, %if.then3.thread ], [ %30, %cond.true5.i39 ], [ %25, %cond.false17.i16 ], [ %25, %cond.true23.i21 ], [ %25, %cond.false25.i26 ]
  %cond50.i23 = phi i32 [ %add3.i57, %if.then3.thread ], [ %add16.i49, %cond.true5.i39 ], [ 128, %cond.false17.i16 ], [ %34, %cond.true23.i21 ], [ %add43.i38, %cond.false25.i26 ]
  %idxprom51.i24 = sext i32 %cond50.i23 to i64
  %arrayidx52.i25 = getelementptr inbounds i32, ptr %40, i64 %idxprom51.i24
  %42 = load i32, ptr %arrayidx52.i25, align 4
  br label %if.end5

if.end5:                                          ; preds = %_ZNK6icu_7513CollationData7getCE32Ei.exit.thread65, %_ZNK6icu_7513CollationData7getCE32Ei.exit.thread, %_ZNK6icu_7513CollationData7getCE32Ei.exit58, %_ZNK6icu_7513CollationData7getCE32Ei.exit
  %d.addr.0 = phi ptr [ %41, %_ZNK6icu_7513CollationData7getCE32Ei.exit58 ], [ %d, %_ZNK6icu_7513CollationData7getCE32Ei.exit ], [ %d, %_ZNK6icu_7513CollationData7getCE32Ei.exit.thread ], [ %d, %_ZNK6icu_7513CollationData7getCE32Ei.exit.thread65 ]
  %ce32.0 = phi i32 [ %42, %_ZNK6icu_7513CollationData7getCE32Ei.exit58 ], [ %10, %_ZNK6icu_7513CollationData7getCE32Ei.exit ], [ %19, %_ZNK6icu_7513CollationData7getCE32Ei.exit.thread ], [ %13, %_ZNK6icu_7513CollationData7getCE32Ei.exit.thread65 ]
  store ptr %d.addr.0, ptr %this, align 8
  tail call void @_ZN6icu_7525ContractionsAndExpansions10handleCE32Eiij(ptr noundef nonnull align 8 dereferenceable(764) %this, i32 noundef %c, i32 noundef %c, i32 noundef %ce32.0)
  %43 = load i32, ptr %errorCode, align 8
  store i32 %43, ptr %ec, align 4
  br label %return

return:                                           ; preds = %entry, %if.end5
  ret void
}